; Function Attrs: mustprogress uwtable
define hidden void @_ZN4cvc58internal8decision12JustifyStack5clearEv(ptr noundef nonnull align 8 dereferenceable(184) %0) local_unnamed_addr #4 align 2 personality ptr @__gxx_personality_v0 {
  %2 = load ptr, ptr @_ZN4cvc58internal12NodeTemplateILb0EE6s_nullE, align 8, !tbaa !30, !noalias !64
  %3 = getelementptr inbounds nuw i8, ptr %0, i64 16
  %4 = load ptr, ptr %3, align 8, !tbaa !33
  %5 = load ptr, ptr %4, align 8, !tbaa !34
  %6 = getelementptr inbounds nuw i8, ptr %5, i64 16
  %7 = load ptr, ptr %6, align 8, !tbaa !42
  %8 = getelementptr inbounds i8, ptr %7, i64 -8
  %9 = load ptr, ptr %8, align 8, !tbaa !44
  %10 = icmp eq ptr %4, %9
  br i1 %10, label %_ZN4cvc57context10ContextObj11makeCurrentEv.exit.i.i, label %11

11:                                               ; preds = %1
  %12 = getelementptr inbounds nuw i8, ptr %0, i64 8
  tail call void @_ZN4cvc57context10ContextObj6updateEv(ptr noundef nonnull align 8 dereferenceable(48) %12)
  br label %_ZN4cvc57context10ContextObj11makeCurrentEv.exit.i.i

_ZN4cvc57context10ContextObj11makeCurrentEv.exit.i.i: ; preds = %11, %1
  %13 = getelementptr inbounds nuw i8, ptr %0, i64 48
  %14 = load ptr, ptr %13, align 8, !tbaa !30
  %.not.i.i.i = icmp eq ptr %14, %2
  br i1 %.not.i.i.i, label %_ZN4cvc57context3CDOINS_8internal12NodeTemplateILb0EEEEaSERKS4_.exit, label %15, !prof !59

15:                                               ; preds = %_ZN4cvc57context10ContextObj11makeCurrentEv.exit.i.i
  store ptr %2, ptr %13, align 8, !tbaa !30
  br label %_ZN4cvc57context3CDOINS_8internal12NodeTemplateILb0EEEEaSERKS4_.exit

_ZN4cvc57context3CDOINS_8internal12NodeTemplateILb0EEEEaSERKS4_.exit: ; preds = %15, %_ZN4cvc57context10ContextObj11makeCurrentEv.exit.i.i
  %16 = getelementptr inbounds nuw i8, ptr %0, i64 144
  %17 = load ptr, ptr %16, align 8, !tbaa !33
  %18 = load ptr, ptr %17, align 8, !tbaa !34
  %19 = getelementptr inbounds nuw i8, ptr %18, i64 16
  %20 = load ptr, ptr %19, align 8, !tbaa !42
  %21 = getelementptr inbounds i8, ptr %20, i64 -8
  %22 = load ptr, ptr %21, align 8, !tbaa !44
  %23 = icmp eq ptr %17, %22
  br i1 %23, label %_ZN4cvc57context3CDOImEaSERKm.exit, label %24

24:                                               ; preds = %_ZN4cvc57context3CDOINS_8internal12NodeTemplateILb0EEEEaSERKS4_.exit
  %25 = getelementptr inbounds nuw i8, ptr %0, i64 136
  tail call void @_ZN4cvc57context10ContextObj6updateEv(ptr noundef nonnull align 8 dereferenceable(48) %25)
  br label %_ZN4cvc57context3CDOImEaSERKm.exit

_ZN4cvc57context3CDOImEaSERKm.exit:               ; preds = %_ZN4cvc57context3CDOINS_8internal12NodeTemplateILb0EEEEaSERKS4_.exit, %24
  %26 = getelementptr inbounds nuw i8, ptr %0, i64 176
  store i64 0, ptr %26, align 8, !tbaa !32
  ret void
}